target datalayout = "e-m:e-p270:32:32-p271:32:32-p272:64:64-i64:64-i128:128-f80:128-n8:16:32:64-S128"
target triple = "x86_64-pc-linux-gnu"

%class.ptr_vector.49 = type { %class.vector.50 }
%class.vector.50 = type { ptr }
%"class.datalog::relation_signature" = type { %"class.datalog::tr_infrastructure<datalog::relation_traits>::signature_base" }
%"class.datalog::tr_infrastructure<datalog::relation_traits>::signature_base" = type { %class.ptr_vector.49 }
%"class.datalog::tr_infrastructure<datalog::relation_traits>::base_ancestor" = type <{ ptr, ptr, %"class.datalog::relation_signature", i32, [4 x i8] }>

; Function Attrs: mustprogress nounwind uwtable
define linkonce_odr hidden noundef nonnull align 8 dereferenceable(36) ptr @_ZNK7datalog17tr_infrastructureINS_15relation_traitsEE13base_ancestor10get_pluginEv(ptr noundef nonnull align 8 dereferenceable(28) %0) #4 comdat align 2 {
  %2 = alloca ptr, align 8
  store ptr %0, ptr %2, align 8, !tbaa !447
  %3 = load ptr, ptr %2, align 8
  %4 = getelementptr inbounds nuw %"class.datalog::tr_infrastructure<datalog::relation_traits>::base_ancestor", ptr %3, i32 0, i32 1
  %5 = load ptr, ptr %4, align 8, !tbaa !449
  ret ptr %5
}

; Function Attrs: mustprogress uwtable
define hidden noundef ptr @_ZN7datalog16relation_manager28mk_filter_by_intersection_fnERKNS_13relation_baseES3_jPKjS5_(ptr noundef nonnull align 8 dereferenceable(200) %0, ptr noundef nonnull align 8 dereferenceable(28) %1, ptr noundef nonnull align 8 dereferenceable(28) %2, i32 noundef %3, ptr noundef %4, ptr noundef %5) #5 align 2 {
  %7 = alloca ptr, align 8
  %8 = alloca ptr, align 8
  %9 = alloca ptr, align 8
  %10 = alloca i32, align 4
  %11 = alloca ptr, align 8
  %12 = alloca ptr, align 8
  %13 = alloca ptr, align 8
  store ptr %0, ptr %7, align 8, !tbaa !3
  store ptr %1, ptr %8, align 8, !tbaa !293
  store ptr %2, ptr %9, align 8, !tbaa !293
  store i32 %3, ptr %10, align 4, !tbaa !279
  store ptr %4, ptr %11, align 8, !tbaa !286
  store ptr %5, ptr %12, align 8, !tbaa !286
  %14 = load ptr, ptr %7, align 8
  call void @llvm.lifetime.start.p0(i64 8, ptr %13) #3
  %15 = load ptr, ptr %8, align 8, !tbaa !293
  %16 = call noundef nonnull align 8 dereferenceable(36) ptr @_ZNK7datalog17tr_infrastructureINS_15relation_traitsEE13base_ancestor10get_pluginEv(ptr noundef nonnull align 8 dereferenceable(28) %15)
  %17 = load ptr, ptr %8, align 8, !tbaa !293
  %18 = load ptr, ptr %9, align 8, !tbaa !293
  %19 = load i32, ptr %10, align 4, !tbaa !279
  %20 = load ptr, ptr %11, align 8, !tbaa !286
  %21 = load ptr, ptr %12, align 8, !tbaa !286
  %22 = load ptr, ptr %16, align 8, !tbaa !8
  %23 = getelementptr inbounds ptr, ptr %22, i64 22
  %24 = load ptr, ptr %23, align 8
  %25 = call noundef ptr %24(ptr noundef nonnull align 8 dereferenceable(32) %16, ptr noundef nonnull align 8 dereferenceable(28) %17, ptr noundef nonnull align 8 dereferenceable(28) %18, i32 noundef %19, ptr noundef %20, ptr noundef %21)
  store ptr %25, ptr %13, align 8, !tbaa !499
  %26 = load ptr, ptr %13, align 8, !tbaa !499
  %27 = icmp ne ptr %26, null
  br i1 %27, label %46, label %28

28:                                               ; preds = %6
  %29 = load ptr, ptr %8, align 8, !tbaa !293
  %30 = call noundef nonnull align 8 dereferenceable(36) ptr @_ZNK7datalog17tr_infrastructureINS_15relation_traitsEE13base_ancestor10get_pluginEv(ptr noundef nonnull align 8 dereferenceable(28) %29)
  %31 = load ptr, ptr %9, align 8, !tbaa !293
  %32 = call noundef nonnull align 8 dereferenceable(36) ptr @_ZNK7datalog17tr_infrastructureINS_15relation_traitsEE13base_ancestor10get_pluginEv(ptr noundef nonnull align 8 dereferenceable(28) %31)
  %33 = icmp ne ptr %30, %32
  br i1 %33, label %34, label %46

34:                                               ; preds = %28
  %35 = load ptr, ptr %9, align 8, !tbaa !293
  %36 = call noundef nonnull align 8 dereferenceable(36) ptr @_ZNK7datalog17tr_infrastructureINS_15relation_traitsEE13base_ancestor10get_pluginEv(ptr noundef nonnull align 8 dereferenceable(28) %35)
  %37 = load ptr, ptr %8, align 8, !tbaa !293
  %38 = load ptr, ptr %9, align 8, !tbaa !293
  %39 = load i32, ptr %10, align 4, !tbaa !279
  %40 = load ptr, ptr %11, align 8, !tbaa !286
  %41 = load ptr, ptr %12, align 8, !tbaa !286
  %42 = load ptr, ptr %36, align 8, !tbaa !8
  %43 = getelementptr inbounds ptr, ptr %42, i64 22
  %44 = load ptr, ptr %43, align 8
  %45 = call noundef ptr %44(ptr noundef nonnull align 8 dereferenceable(32) %36, ptr noundef nonnull align 8 dereferenceable(28) %37, ptr noundef nonnull align 8 dereferenceable(28) %38, i32 noundef %39, ptr noundef %40, ptr noundef %41)
  store ptr %45, ptr %13, align 8, !tbaa !499
  br label %46

46:                                               ; preds = %34, %28, %6
  %47 = load ptr, ptr %13, align 8, !tbaa !499
  %48 = icmp ne ptr %47, null
  br i1 %48, label %56, label %49

49:                                               ; preds = %46
  %50 = load ptr, ptr %8, align 8, !tbaa !293
  %51 = load ptr, ptr %9, align 8, !tbaa !293
  %52 = load i32, ptr %10, align 4, !tbaa !279
  %53 = load ptr, ptr %11, align 8, !tbaa !286
  %54 = load ptr, ptr %12, align 8, !tbaa !286
  %55 = call noundef ptr @_ZN7datalog16relation_manager40try_mk_default_filter_by_intersection_fnERKNS_13relation_baseES3_jPKjS5_(ptr noundef nonnull align 8 dereferenceable(200) %14, ptr noundef nonnull align 8 dereferenceable(28) %50, ptr noundef nonnull align 8 dereferenceable(28) %51, i32 noundef %52, ptr noundef %53, ptr noundef %54)
  store ptr %55, ptr %13, align 8, !tbaa !499
  br label %56

56:                                               ; preds = %49, %46
  %57 = load ptr, ptr %13, align 8, !tbaa !499
  call void @llvm.lifetime.end.p0(i64 8, ptr %13) #3
  ret ptr %57
}