; Function Attrs: mustprogress uwtable
define hidden noundef ptr @_ZN7datalog16relation_manager28mk_filter_by_intersection_fnERKNS_13relation_baseES3_jPKjS5_(ptr noundef nonnull align 8 dereferenceable(200) %0, ptr noundef nonnull align 8 dereferenceable(28) %1, ptr noundef nonnull align 8 dereferenceable(28) %2, i32 noundef %3, ptr noundef %4, ptr noundef %5) local_unnamed_addr #4 align 2 {
  %7 = getelementptr inbounds nuw i8, ptr %1, i64 8
  %8 = load ptr, ptr %7, align 8, !tbaa !426
  %9 = load ptr, ptr %8, align 8, !tbaa !3
  %10 = getelementptr inbounds nuw i8, ptr %9, i64 176
  %11 = load ptr, ptr %10, align 8
  %12 = tail call noundef ptr %11(ptr noundef nonnull align 8 dereferenceable(32) %8, ptr noundef nonnull align 8 dereferenceable(28) %1, ptr noundef nonnull align 8 dereferenceable(28) %2, i32 noundef %3, ptr noundef %4, ptr noundef %5)
  %.not = icmp eq ptr %12, null
  br i1 %.not, label %13, label %.thread28

13:                                               ; preds = %6
  %14 = load ptr, ptr %7, align 8, !tbaa !426
  %15 = getelementptr inbounds nuw i8, ptr %2, i64 8
  %16 = load ptr, ptr %15, align 8, !tbaa !426
  %.not24 = icmp eq ptr %14, %16
  br i1 %.not24, label %.thread, label %17

17:                                               ; preds = %13
  %18 = load ptr, ptr %16, align 8, !tbaa !3
  %19 = getelementptr inbounds nuw i8, ptr %18, i64 176
  %20 = load ptr, ptr %19, align 8
  %21 = tail call noundef ptr %20(ptr noundef nonnull align 8 dereferenceable(32) %16, ptr noundef nonnull align 8 dereferenceable(28) %1, ptr noundef nonnull align 8 dereferenceable(28) %2, i32 noundef %3, ptr noundef %4, ptr noundef %5)
  %.not25 = icmp eq ptr %21, null
  br i1 %.not25, label %.thread, label %.thread28

.thread:                                          ; preds = %13, %17
  %22 = tail call noundef ptr @_ZN7datalog16relation_manager40try_mk_default_filter_by_intersection_fnERKNS_13relation_baseES3_jPKjS5_(ptr noundef nonnull align 8 dereferenceable(200) %0, ptr noundef nonnull align 8 dereferenceable(28) %1, ptr noundef nonnull align 8 dereferenceable(28) %2, i32 noundef %3, ptr noundef %4, ptr noundef %5)
  br label %.thread28

.thread28:                                        ; preds = %6, %.thread, %17
  %.1 = phi ptr [ %21, %17 ], [ %22, %.thread ], [ %12, %6 ]
  ret ptr %.1
}